target datalayout = "e-m:e-p270:32:32-p271:32:32-p272:64:64-i64:64-i128:128-f80:128-n8:16:32:64-S128"
target triple = "x86_64-unknown-linux-gnu"

%"class.euf::enode" = type { ptr, i8, i8, i8, i8, i8, i8, i8, i8, i8, i32, i32, i32, i32, i32, i32, %class.ptr_vector, ptr, ptr, ptr, ptr, %class.id_var_list, %"class.euf::justification", %"class.euf::justification", i32, i8, %class.approx_set, %class.approx_set, [0 x ptr] }
%class.ptr_vector = type { %class.vector }
%class.vector = type { ptr }
%class.id_var_list = type { i32, ptr }
%"class.euf::justification" = type { i32, %union.anon, %union.anon.0 }
%union.anon = type { ptr }
%union.anon.0 = type { ptr }
%class.approx_set = type { %class.approx_set_tpl }
%class.approx_set_tpl = type { i64 }
%class.ast = type { i32, i24, i32, i32 }

; Function Attrs: mustprogress nounwind uwtable
define linkonce_odr hidden noundef i32 @_ZNK3ast6get_idEv(ptr noundef nonnull align 4 dereferenceable(16) %this) #4 comdat align 2 {
entry:
  %this.addr = alloca ptr, align 8
  store ptr %this, ptr %this.addr, align 8
  %this1 = load ptr, ptr %this.addr, align 8
  %m_id = getelementptr inbounds %class.ast, ptr %this1, i32 0, i32 0
  %0 = load i32, ptr %m_id, align 4
  ret i32 %0
}

; Function Attrs: mustprogress nounwind uwtable
define linkonce_odr hidden noundef ptr @_ZNK3euf5enode8get_rootEv(ptr noundef nonnull align 8 dereferenceable(176) %this) #4 comdat align 2 {
entry:
  %this.addr = alloca ptr, align 8
  store ptr %this, ptr %this.addr, align 8
  %this1 = load ptr, ptr %this.addr, align 8
  %m_root = getelementptr inbounds %"class.euf::enode", ptr %this1, i32 0, i32 18
  %0 = load ptr, ptr %m_root, align 8
  ret ptr %0
}

; Function Attrs: mustprogress nounwind uwtable
define linkonce_odr hidden noundef ptr @_ZNK3euf5enode7get_argEj(ptr noundef nonnull align 8 dereferenceable(176) %this, i32 noundef %i) #4 comdat align 2 {
entry:
  %this.addr = alloca ptr, align 8
  %i.addr = alloca i32, align 4
  store ptr %this, ptr %this.addr, align 8
  store i32 %i, ptr %i.addr, align 4
  %this1 = load ptr, ptr %this.addr, align 8
  %m_args = getelementptr inbounds %"class.euf::enode", ptr %this1, i32 0, i32 28
  %0 = load i32, ptr %i.addr, align 4
  %idxprom = zext i32 %0 to i64
  %arrayidx = getelementptr inbounds [0 x ptr], ptr %m_args, i64 0, i64 %idxprom
  %1 = load ptr, ptr %arrayidx, align 8
  ret ptr %1
}

; Function Attrs: mustprogress uwtable
define linkonce_odr hidden noundef i32 @_ZNK3euf5enode4hashEv(ptr noundef nonnull align 8 dereferenceable(176) %this) #5 comdat align 2 {
entry:
  %this.addr = alloca ptr, align 8
  store ptr %this, ptr %this.addr, align 8
  %this1 = load ptr, ptr %this.addr, align 8
  %m_expr = getelementptr inbounds %"class.euf::enode", ptr %this1, i32 0, i32 0
  %0 = load ptr, ptr %m_expr, align 8
  %call = call noundef i32 @_ZNK3ast6get_idEv(ptr noundef nonnull align 4 dereferenceable(16) %0)
  ret i32 %call
}

; Function Attrs: mustprogress uwtable
define linkonce_odr hidden noundef ptr @_ZN3euf6etable8get_rootEPNS_5enodeEj(ptr noundef %n, i32 noundef %idx) #5 comdat align 2 {
entry:
  %n.addr = alloca ptr, align 8
  %idx.addr = alloca i32, align 4
  store ptr %n, ptr %n.addr, align 8
  store i32 %idx, ptr %idx.addr, align 4
  %0 = load ptr, ptr %n.addr, align 8
  %1 = load i32, ptr %idx.addr, align 4
  %call = call noundef ptr @_ZNK3euf5enode7get_argEj(ptr noundef nonnull align 8 dereferenceable(176) %0, i32 noundef %1)
  %call1 = call noundef ptr @_ZNK3euf5enode8get_rootEv(ptr noundef nonnull align 8 dereferenceable(176) %call)
  ret ptr %call1
}

; Function Attrs: mustprogress nounwind uwtable
define linkonce_odr hidden noundef i32 @_ZNK3euf5enode8num_argsEv(ptr noundef nonnull align 8 dereferenceable(176) %this) #4 comdat align 2 {
entry:
  %this.addr = alloca ptr, align 8
  store ptr %this, ptr %this.addr, align 8
  %this1 = load ptr, ptr %this.addr, align 8
  %m_num_args = getelementptr inbounds %"class.euf::enode", ptr %this1, i32 0, i32 24
  %0 = load i32, ptr %m_num_args, align 8
  ret i32 %0
}

; Function Attrs: mustprogress uwtable
define hidden noundef i32 @_ZNK3euf6etable7cg_hashclEPNS_5enodeE(ptr noundef nonnull align 1 dereferenceable(1) %this, ptr noundef %n) #5 align 2 {
entry:
  %this.addr = alloca ptr, align 8
  %n.addr = alloca ptr, align 8
  %a = alloca i32, align 4
  %b = alloca i32, align 4
  %c = alloca i32, align 4
  %i = alloca i32, align 4
  store ptr %this, ptr %this.addr, align 8
  store ptr %n, ptr %n.addr, align 8
  store i32 -1640531527, ptr %b, align 4
  store i32 -1640531527, ptr %a, align 4
  store i32 11, ptr %c, align 4
  %0 = load ptr, ptr %n.addr, align 8
  %call = call noundef i32 @_ZNK3euf5enode8num_argsEv(ptr noundef nonnull align 8 dereferenceable(176) %0)
  store i32 %call, ptr %i, align 4
  br label %while.cond

while.cond:                                       ; preds = %while.body, %entry
  %1 = load i32, ptr %i, align 4
  %cmp = icmp uge i32 %1, 3
  br i1 %cmp, label %while.body, label %while.end

while.body:                                       ; preds = %while.cond
  %2 = load i32, ptr %i, align 4
  %dec = add i32 %2, -1
  store i32 %dec, ptr %i, align 4
  %3 = load ptr, ptr %n.addr, align 8
  %4 = load i32, ptr %i, align 4
  %call2 = call noundef ptr @_ZN3euf6etable8get_rootEPNS_5enodeEj(ptr noundef %3, i32 noundef %4)
  %call3 = call noundef i32 @_ZNK3euf5enode4hashEv(ptr noundef nonnull align 8 dereferenceable(176) %call2)
  %5 = load i32, ptr %a, align 4
  %add = add i32 %5, %call3
  store i32 %add, ptr %a, align 4
  %6 = load i32, ptr %i, align 4
  %dec4 = add i32 %6, -1
  store i32 %dec4, ptr %i, align 4
  %7 = load ptr, ptr %n.addr, align 8
  %8 = load i32, ptr %i, align 4
  %call5 = call noundef ptr @_ZN3euf6etable8get_rootEPNS_5enodeEj(ptr noundef %7, i32 noundef %8)
  %call6 = call noundef i32 @_ZNK3euf5enode4hashEv(ptr noundef nonnull align 8 dereferenceable(176) %call5)
  %9 = load i32, ptr %b, align 4
  %add7 = add i32 %9, %call6
  store i32 %add7, ptr %b, align 4
  %10 = load i32, ptr %i, align 4
  %dec8 = add i32 %10, -1
  store i32 %dec8, ptr %i, align 4
  %11 = load ptr, ptr %n.addr, align 8
  %12 = load i32, ptr %i, align 4
  %call9 = call noundef ptr @_ZN3euf6etable8get_rootEPNS_5enodeEj(ptr noundef %11, i32 noundef %12)
  %call10 = call noundef i32 @_ZNK3euf5enode4hashEv(ptr noundef nonnull align 8 dereferenceable(176) %call9)
  %13 = load i32, ptr %c, align 4
  %add11 = add i32 %13, %call10
  store i32 %add11, ptr %c, align 4
  %14 = load i32, ptr %b, align 4
  %15 = load i32, ptr %a, align 4
  %sub = sub i32 %15, %14
  store i32 %sub, ptr %a, align 4
  %16 = load i32, ptr %c, align 4
  %17 = load i32, ptr %a, align 4
  %sub12 = sub i32 %17, %16
  store i32 %sub12, ptr %a, align 4
  %18 = load i32, ptr %c, align 4
  %shr = lshr i32 %18, 13
  %19 = load i32, ptr %a, align 4
  %xor = xor i32 %19, %shr
  store i32 %xor, ptr %a, align 4
  %20 = load i32, ptr %c, align 4
  %21 = load i32, ptr %b, align 4
  %sub13 = sub i32 %21, %20
  store i32 %sub13, ptr %b, align 4
  %22 = load i32, ptr %a, align 4
  %23 = load i32, ptr %b, align 4
  %sub14 = sub i32 %23, %22
  store i32 %sub14, ptr %b, align 4
  %24 = load i32, ptr %a, align 4
  %shl = shl i32 %24, 8
  %25 = load i32, ptr %b, align 4
  %xor15 = xor i32 %25, %shl
  store i32 %xor15, ptr %b, align 4
  %26 = load i32, ptr %a, align 4
  %27 = load i32, ptr %c, align 4
  %sub16 = sub i32 %27, %26
  store i32 %sub16, ptr %c, align 4
  %28 = load i32, ptr %b, align 4
  %29 = load i32, ptr %c, align 4
  %sub17 = sub i32 %29, %28
  store i32 %sub17, ptr %c, align 4
  %30 = load i32, ptr %b, align 4
  %shr18 = lshr i32 %30, 13
  %31 = load i32, ptr %c, align 4
  %xor19 = xor i32 %31, %shr18
  store i32 %xor19, ptr %c, align 4
  %32 = load i32, ptr %b, align 4
  %33 = load i32, ptr %a, align 4
  %sub20 = sub i32 %33, %32
  store i32 %sub20, ptr %a, align 4
  %34 = load i32, ptr %c, align 4
  %35 = load i32, ptr %a, align 4
  %sub21 = sub i32 %35, %34
  store i32 %sub21, ptr %a, align 4
  %36 = load i32, ptr %c, align 4
  %shr22 = lshr i32 %36, 12
  %37 = load i32, ptr %a, align 4
  %xor23 = xor i32 %37, %shr22
  store i32 %xor23, ptr %a, align 4
  %38 = load i32, ptr %c, align 4
  %39 = load i32, ptr %b, align 4
  %sub24 = sub i32 %39, %38
  store i32 %sub24, ptr %b, align 4
  %40 = load i32, ptr %a, align 4
  %41 = load i32, ptr %b, align 4
  %sub25 = sub i32 %41, %40
  store i32 %sub25, ptr %b, align 4
  %42 = load i32, ptr %a, align 4
  %shl26 = shl i32 %42, 16
  %43 = load i32, ptr %b, align 4
  %xor27 = xor i32 %43, %shl26
  store i32 %xor27, ptr %b, align 4
  %44 = load i32, ptr %a, align 4
  %45 = load i32, ptr %c, align 4
  %sub28 = sub i32 %45, %44
  store i32 %sub28, ptr %c, align 4
  %46 = load i32, ptr %b, align 4
  %47 = load i32, ptr %c, align 4
  %sub29 = sub i32 %47, %46
  store i32 %sub29, ptr %c, align 4
  %48 = load i32, ptr %b, align 4
  %shr30 = lshr i32 %48, 5
  %49 = load i32, ptr %c, align 4
  %xor31 = xor i32 %49, %shr30
  store i32 %xor31, ptr %c, align 4
  %50 = load i32, ptr %b, align 4
  %51 = load i32, ptr %a, align 4
  %sub32 = sub i32 %51, %50
  store i32 %sub32, ptr %a, align 4
  %52 = load i32, ptr %c, align 4
  %53 = load i32, ptr %a, align 4
  %sub33 = sub i32 %53, %52
  store i32 %sub33, ptr %a, align 4
  %54 = load i32, ptr %c, align 4
  %shr34 = lshr i32 %54, 3
  %55 = load i32, ptr %a, align 4
  %xor35 = xor i32 %55, %shr34
  store i32 %xor35, ptr %a, align 4
  %56 = load i32, ptr %c, align 4
  %57 = load i32, ptr %b, align 4
  %sub36 = sub i32 %57, %56
  store i32 %sub36, ptr %b, align 4
  %58 = load i32, ptr %a, align 4
  %59 = load i32, ptr %b, align 4
  %sub37 = sub i32 %59, %58
  store i32 %sub37, ptr %b, align 4
  %60 = load i32, ptr %a, align 4
  %shl38 = shl i32 %60, 10
  %61 = load i32, ptr %b, align 4
  %xor39 = xor i32 %61, %shl38
  store i32 %xor39, ptr %b, align 4
  %62 = load i32, ptr %a, align 4
  %63 = load i32, ptr %c, align 4
  %sub40 = sub i32 %63, %62
  store i32 %sub40, ptr %c, align 4
  %64 = load i32, ptr %b, align 4
  %65 = load i32, ptr %c, align 4
  %sub41 = sub i32 %65, %64
  store i32 %sub41, ptr %c, align 4
  %66 = load i32, ptr %b, align 4
  %shr42 = lshr i32 %66, 15
  %67 = load i32, ptr %c, align 4
  %xor43 = xor i32 %67, %shr42
  store i32 %xor43, ptr %c, align 4
  br label %while.cond, !llvm.loop !4

while.end:                                        ; preds = %while.cond
  %68 = load i32, ptr %i, align 4
  switch i32 %68, label %sw.epilog [
    i32 2, label %sw.bb
    i32 1, label %sw.bb47
  ]

sw.bb:                                            ; preds = %while.end
  %69 = load ptr, ptr %n.addr, align 8
  %call44 = call noundef ptr @_ZN3euf6etable8get_rootEPNS_5enodeEj(ptr noundef %69, i32 noundef 1)
  %call45 = call noundef i32 @_ZNK3euf5enode4hashEv(ptr noundef nonnull align 8 dereferenceable(176) %call44)
  %70 = load i32, ptr %b, align 4
  %add46 = add i32 %70, %call45
  store i32 %add46, ptr %b, align 4
  br label %sw.bb47

sw.bb47:                                          ; preds = %sw.bb, %while.end
  %71 = load ptr, ptr %n.addr, align 8
  %call48 = call noundef ptr @_ZN3euf6etable8get_rootEPNS_5enodeEj(ptr noundef %71, i32 noundef 0)
  %call49 = call noundef i32 @_ZNK3euf5enode4hashEv(ptr noundef nonnull align 8 dereferenceable(176) %call48)
  %72 = load i32, ptr %c, align 4
  %add50 = add i32 %72, %call49
  store i32 %add50, ptr %c, align 4
  br label %sw.epilog

sw.epilog:                                        ; preds = %sw.bb47, %while.end
  %73 = load i32, ptr %b, align 4
  %74 = load i32, ptr %a, align 4
  %sub51 = sub i32 %74, %73
  store i32 %sub51, ptr %a, align 4
  %75 = load i32, ptr %c, align 4
  %76 = load i32, ptr %a, align 4
  %sub52 = sub i32 %76, %75
  store i32 %sub52, ptr %a, align 4
  %77 = load i32, ptr %c, align 4
  %shr53 = lshr i32 %77, 13
  %78 = load i32, ptr %a, align 4
  %xor54 = xor i32 %78, %shr53
  store i32 %xor54, ptr %a, align 4
  %79 = load i32, ptr %c, align 4
  %80 = load i32, ptr %b, align 4
  %sub55 = sub i32 %80, %79
  store i32 %sub55, ptr %b, align 4
  %81 = load i32, ptr %a, align 4
  %82 = load i32, ptr %b, align 4
  %sub56 = sub i32 %82, %81
  store i32 %sub56, ptr %b, align 4
  %83 = load i32, ptr %a, align 4
  %shl57 = shl i32 %83, 8
  %84 = load i32, ptr %b, align 4
  %xor58 = xor i32 %84, %shl57
  store i32 %xor58, ptr %b, align 4
  %85 = load i32, ptr %a, align 4
  %86 = load i32, ptr %c, align 4
  %sub59 = sub i32 %86, %85
  store i32 %sub59, ptr %c, align 4
  %87 = load i32, ptr %b, align 4
  %88 = load i32, ptr %c, align 4
  %sub60 = sub i32 %88, %87
  store i32 %sub60, ptr %c, align 4
  %89 = load i32, ptr %b, align 4
  %shr61 = lshr i32 %89, 13
  %90 = load i32, ptr %c, align 4
  %xor62 = xor i32 %90, %shr61
  store i32 %xor62, ptr %c, align 4
  %91 = load i32, ptr %b, align 4
  %92 = load i32, ptr %a, align 4
  %sub63 = sub i32 %92, %91
  store i32 %sub63, ptr %a, align 4
  %93 = load i32, ptr %c, align 4
  %94 = load i32, ptr %a, align 4
  %sub64 = sub i32 %94, %93
  store i32 %sub64, ptr %a, align 4
  %95 = load i32, ptr %c, align 4
  %shr65 = lshr i32 %95, 12
  %96 = load i32, ptr %a, align 4
  %xor66 = xor i32 %96, %shr65
  store i32 %xor66, ptr %a, align 4
  %97 = load i32, ptr %c, align 4
  %98 = load i32, ptr %b, align 4
  %sub67 = sub i32 %98, %97
  store i32 %sub67, ptr %b, align 4
  %99 = load i32, ptr %a, align 4
  %100 = load i32, ptr %b, align 4
  %sub68 = sub i32 %100, %99
  store i32 %sub68, ptr %b, align 4
  %101 = load i32, ptr %a, align 4
  %shl69 = shl i32 %101, 16
  %102 = load i32, ptr %b, align 4
  %xor70 = xor i32 %102, %shl69
  store i32 %xor70, ptr %b, align 4
  %103 = load i32, ptr %a, align 4
  %104 = load i32, ptr %c, align 4
  %sub71 = sub i32 %104, %103
  store i32 %sub71, ptr %c, align 4
  %105 = load i32, ptr %b, align 4
  %106 = load i32, ptr %c, align 4
  %sub72 = sub i32 %106, %105
  store i32 %sub72, ptr %c, align 4
  %107 = load i32, ptr %b, align 4
  %shr73 = lshr i32 %107, 5
  %108 = load i32, ptr %c, align 4
  %xor74 = xor i32 %108, %shr73
  store i32 %xor74, ptr %c, align 4
  %109 = load i32, ptr %b, align 4
  %110 = load i32, ptr %a, align 4
  %sub75 = sub i32 %110, %109
  store i32 %sub75, ptr %a, align 4
  %111 = load i32, ptr %c, align 4
  %112 = load i32, ptr %a, align 4
  %sub76 = sub i32 %112, %111
  store i32 %sub76, ptr %a, align 4
  %113 = load i32, ptr %c, align 4
  %shr77 = lshr i32 %113, 3
  %114 = load i32, ptr %a, align 4
  %xor78 = xor i32 %114, %shr77
  store i32 %xor78, ptr %a, align 4
  %115 = load i32, ptr %c, align 4
  %116 = load i32, ptr %b, align 4
  %sub79 = sub i32 %116, %115
  store i32 %sub79, ptr %b, align 4
  %117 = load i32, ptr %a, align 4
  %118 = load i32, ptr %b, align 4
  %sub80 = sub i32 %118, %117
  store i32 %sub80, ptr %b, align 4
  %119 = load i32, ptr %a, align 4
  %shl81 = shl i32 %119, 10
  %120 = load i32, ptr %b, align 4
  %xor82 = xor i32 %120, %shl81
  store i32 %xor82, ptr %b, align 4
  %121 = load i32, ptr %a, align 4
  %122 = load i32, ptr %c, align 4
  %sub83 = sub i32 %122, %121
  store i32 %sub83, ptr %c, align 4
  %123 = load i32, ptr %b, align 4
  %124 = load i32, ptr %c, align 4
  %sub84 = sub i32 %124, %123
  store i32 %sub84, ptr %c, align 4
  %125 = load i32, ptr %b, align 4
  %shr85 = lshr i32 %125, 15
  %126 = load i32, ptr %c, align 4
  %xor86 = xor i32 %126, %shr85
  store i32 %xor86, ptr %c, align 4
  %127 = load i32, ptr %c, align 4
  ret i32 %127
}