; Function Attrs: mustprogress nofree norecurse nosync nounwind willreturn memory(read, inaccessiblemem: none) uwtable
define hidden noundef i32 @_ZNK3euf6etable7cg_hashclEPNS_5enodeE(ptr nocapture nonnull readnone align 1 %this, ptr nocapture noundef readonly %n) local_unnamed_addr #3 align 2 {
entry:
  %m_num_args.i = getelementptr inbounds i8, ptr %n, i64 152
  %0 = load i32, ptr %m_num_args.i, align 8
  %cmp154 = icmp ugt i32 %0, 2
  br i1 %cmp154, label %while.body.lr.ph, label %while.end

while.body.lr.ph:                                 ; preds = %entry
  %m_args.i.i = getelementptr inbounds i8, ptr %n, i64 176
  %1 = zext i32 %0 to i64
  br label %while.body

while.body:                                       ; preds = %while.body.lr.ph, %while.body
  %indvars.iv = phi i64 [ %1, %while.body.lr.ph ], [ %10, %while.body ]
  %c.0157 = phi i32 [ 11, %while.body.lr.ph ], [ %xor43, %while.body ]
  %b.0156 = phi i32 [ -1640531527, %while.body.lr.ph ], [ %xor39, %while.body ]
  %a.0155 = phi i32 [ -1640531527, %while.body.lr.ph ], [ %xor35, %while.body ]
  %dec = add i64 %indvars.iv, 4294967295
  %idxprom.i.i = and i64 %dec, 4294967295
  %arrayidx.i.i = getelementptr inbounds [0 x ptr], ptr %m_args.i.i, i64 0, i64 %idxprom.i.i
  %2 = load ptr, ptr %arrayidx.i.i, align 8
  %m_root.i.i = getelementptr inbounds i8, ptr %2, i64 64
  %3 = load ptr, ptr %m_root.i.i, align 8
  %4 = load ptr, ptr %3, align 8
  %5 = load i32, ptr %4, align 4
  %dec4 = add i64 %indvars.iv, 4294967294
  %idxprom.i.i125 = and i64 %dec4, 4294967295
  %arrayidx.i.i126 = getelementptr inbounds [0 x ptr], ptr %m_args.i.i, i64 0, i64 %idxprom.i.i125
  %6 = load ptr, ptr %arrayidx.i.i126, align 8
  %m_root.i.i127 = getelementptr inbounds i8, ptr %6, i64 64
  %7 = load ptr, ptr %m_root.i.i127, align 8
  %8 = load ptr, ptr %7, align 8
  %9 = load i32, ptr %8, align 4
  %add7 = add i32 %9, %b.0156
  %10 = add nsw i64 %indvars.iv, -3
  %arrayidx.i.i130 = getelementptr inbounds [0 x ptr], ptr %m_args.i.i, i64 0, i64 %10
  %11 = load ptr, ptr %arrayidx.i.i130, align 8
  %m_root.i.i131 = getelementptr inbounds i8, ptr %11, i64 64
  %12 = load ptr, ptr %m_root.i.i131, align 8
  %13 = load ptr, ptr %12, align 8
  %14 = load i32, ptr %13, align 4
  %add11 = add i32 %14, %c.0157
  %.neg145 = add i32 %5, %a.0155
  %15 = add i32 %add7, %add11
  %sub12 = sub i32 %.neg145, %15
  %shr = lshr i32 %add11, 13
  %xor = xor i32 %sub12, %shr
  %16 = add i32 %add11, %xor
  %sub14 = sub i32 %add7, %16
  %shl = shl i32 %xor, 8
  %xor15 = xor i32 %sub14, %shl
  %17 = add i32 %xor, %xor15
  %sub17 = sub i32 %add11, %17
  %shr18 = lshr i32 %xor15, 13
  %xor19 = xor i32 %sub17, %shr18
  %18 = add i32 %xor15, %xor19
  %sub21 = sub i32 %xor, %18
  %shr22 = lshr i32 %xor19, 12
  %xor23 = xor i32 %sub21, %shr22
  %19 = add i32 %xor19, %xor23
  %sub25 = sub i32 %xor15, %19
  %shl26 = shl i32 %xor23, 16
  %xor27 = xor i32 %sub25, %shl26
  %20 = add i32 %xor23, %xor27
  %sub29 = sub i32 %xor19, %20
  %shr30 = lshr i32 %xor27, 5
  %xor31 = xor i32 %sub29, %shr30
  %21 = add i32 %xor27, %xor31
  %sub33 = sub i32 %xor23, %21
  %shr34 = lshr i32 %xor31, 3
  %xor35 = xor i32 %sub33, %shr34
  %22 = add i32 %xor31, %xor35
  %sub37 = sub i32 %xor27, %22
  %shl38 = shl i32 %xor35, 10
  %xor39 = xor i32 %sub37, %shl38
  %23 = add i32 %xor35, %xor39
  %sub41 = sub i32 %xor31, %23
  %shr42 = lshr i32 %xor39, 15
  %xor43 = xor i32 %sub41, %shr42
  %cmp.wide = icmp ugt i64 %10, 2
  br i1 %cmp.wide, label %while.body, label %while.end.loopexit, !llvm.loop !4

while.end.loopexit:                               ; preds = %while.body
  %24 = trunc i64 %10 to i32
  br label %while.end

while.end:                                        ; preds = %while.end.loopexit, %entry
  %a.0.lcssa = phi i32 [ -1640531527, %entry ], [ %xor35, %while.end.loopexit ]
  %b.0.lcssa = phi i32 [ -1640531527, %entry ], [ %xor39, %while.end.loopexit ]
  %c.0.lcssa = phi i32 [ 11, %entry ], [ %xor43, %while.end.loopexit ]
  %i.0.lcssa = phi i32 [ %0, %entry ], [ %24, %while.end.loopexit ]
  switch i32 %i.0.lcssa, label %sw.epilog [
    i32 2, label %sw.bb
    i32 1, label %sw.bb47
  ]

sw.bb:                                            ; preds = %while.end
  %arrayidx.i.i133 = getelementptr inbounds i8, ptr %n, i64 184
  %25 = load ptr, ptr %arrayidx.i.i133, align 8
  %m_root.i.i134 = getelementptr inbounds i8, ptr %25, i64 64
  %26 = load ptr, ptr %m_root.i.i134, align 8
  %27 = load ptr, ptr %26, align 8
  %28 = load i32, ptr %27, align 4
  %add46 = add i32 %28, %b.0.lcssa
  br label %sw.bb47

sw.bb47:                                          ; preds = %sw.bb, %while.end
  %b.1 = phi i32 [ %b.0.lcssa, %while.end ], [ %add46, %sw.bb ]
  %m_args.i.i135 = getelementptr inbounds i8, ptr %n, i64 176
  %29 = load ptr, ptr %m_args.i.i135, align 8
  %m_root.i.i136 = getelementptr inbounds i8, ptr %29, i64 64
  %30 = load ptr, ptr %m_root.i.i136, align 8
  %31 = load ptr, ptr %30, align 8
  %32 = load i32, ptr %31, align 4
  %add50 = add i32 %32, %c.0.lcssa
  br label %sw.epilog

sw.epilog:                                        ; preds = %sw.bb47, %while.end
  %b.2 = phi i32 [ %b.0.lcssa, %while.end ], [ %b.1, %sw.bb47 ]
  %c.1 = phi i32 [ %c.0.lcssa, %while.end ], [ %add50, %sw.bb47 ]
  %33 = add i32 %b.2, %c.1
  %sub52 = sub i32 %a.0.lcssa, %33
  %shr53 = lshr i32 %c.1, 13
  %xor54 = xor i32 %sub52, %shr53
  %34 = add i32 %c.1, %xor54
  %sub56 = sub i32 %b.2, %34
  %shl57 = shl i32 %xor54, 8
  %xor58 = xor i32 %sub56, %shl57
  %35 = add i32 %xor54, %xor58
  %sub60 = sub i32 %c.1, %35
  %shr61 = lshr i32 %xor58, 13
  %xor62 = xor i32 %sub60, %shr61
  %36 = add i32 %xor58, %xor62
  %sub64 = sub i32 %xor54, %36
  %shr65 = lshr i32 %xor62, 12
  %xor66 = xor i32 %sub64, %shr65
  %37 = add i32 %xor62, %xor66
  %sub68 = sub i32 %xor58, %37
  %shl69 = shl i32 %xor66, 16
  %xor70 = xor i32 %sub68, %shl69
  %38 = add i32 %xor66, %xor70
  %sub72 = sub i32 %xor62, %38
  %shr73 = lshr i32 %xor70, 5
  %xor74 = xor i32 %sub72, %shr73
  %39 = add i32 %xor70, %xor74
  %sub76 = sub i32 %xor66, %39
  %shr77 = lshr i32 %xor74, 3
  %xor78 = xor i32 %sub76, %shr77
  %40 = add i32 %xor74, %xor78
  %sub80 = sub i32 %xor70, %40
  %shl81 = shl i32 %xor78, 10
  %xor82 = xor i32 %sub80, %shl81
  %41 = add i32 %xor78, %xor82
  %sub84 = sub i32 %xor74, %41
  %shr85 = lshr i32 %xor82, 15
  %xor86 = xor i32 %sub84, %shr85
  ret i32 %xor86
}